; Function Attrs: nofree norecurse nosync nounwind memory(readwrite, inaccessiblemem: none) uwtable
define range(i32 -98, 1) i32 @sp_mulmod(ptr noundef captures(address_is_null) %0, ptr noundef captures(address_is_null) %1, ptr noundef captures(address) %2, ptr noundef captures(address) %3) local_unnamed_addr #11 {
  %5 = icmp ne ptr %0, null
  %6 = icmp ne ptr %1, null
  %or.cond.not25 = and i1 %5, %6
  %7 = icmp ne ptr %2, null
  %or.cond3.not22 = and i1 %or.cond.not25, %7
  %8 = icmp ne ptr %3, null
  %or.cond5.not = and i1 %or.cond3.not22, %8
  br i1 %or.cond5.not, label %9, label %_sp_mulmod.exit

9:                                                ; preds = %4
  %.not = icmp eq ptr %3, %2
  br i1 %.not, label %27, label %10

10:                                               ; preds = %9
  %11 = load i16, ptr %0, align 8, !tbaa !12
  %12 = zext i16 %11 to i32
  %13 = load i16, ptr %1, align 8, !tbaa !12
  %14 = zext i16 %13 to i32
  %15 = add nuw nsw i32 %14, %12
  %16 = getelementptr inbounds nuw i8, ptr %3, i64 2
  %17 = load i16, ptr %16, align 2, !tbaa !10
  %18 = zext i16 %17 to i32
  %19 = icmp samesign ugt i32 %15, %18
  br i1 %19, label %_sp_mulmod.exit, label %.thread

.thread:                                          ; preds = %10
  %20 = tail call i32 @sp_mul(ptr noundef nonnull %0, ptr noundef nonnull %1, ptr noundef nonnull %3)
  %21 = icmp eq i32 %20, 0
  br i1 %21, label %22, label %_sp_mulmod.exit

22:                                               ; preds = %.thread
  %23 = load i16, ptr %3, align 8, !tbaa !12
  %24 = icmp ult i16 %23, 129
  br i1 %24, label %25, label %_sp_mulmod.exit

25:                                               ; preds = %22
  %26 = tail call i32 @sp_div(ptr noundef nonnull %3, ptr noundef nonnull %2, ptr noundef null, ptr noundef nonnull %3)
  br label %_sp_mulmod.exit

27:                                               ; preds = %9
  %28 = tail call fastcc i32 @_sp_mulmod_tmp(ptr noundef nonnull %0, ptr noundef nonnull %1, ptr noundef nonnull %2, ptr noundef nonnull %3)
  br label %_sp_mulmod.exit

_sp_mulmod.exit:                                  ; preds = %4, %10, %27, %25, %22, %.thread
  %.2 = phi i32 [ %20, %.thread ], [ %28, %27 ], [ %26, %25 ], [ -98, %22 ], [ -98, %10 ], [ -98, %4 ]
  ret i32 %.2
}